; Function Attrs: nounwind uwtable
define internal range(i32 -22, 1) i32 @opt_input_file(ptr readnone captures(none) %0, ptr noundef %1) #0 {
  %3 = load ptr, ptr @input_filename, align 8, !tbaa !13
  %.not = icmp eq ptr %3, null
  br i1 %.not, label %sub_0, label %4

4:                                                ; preds = %2
  tail call void (ptr, i32, ptr, ...) @av_log(ptr noundef null, i32 noundef 16, ptr noundef nonnull @.str.196, ptr noundef %1, ptr noundef nonnull %3) #20
  br label %11

sub_0:                                            ; preds = %2
  %5 = load i8, ptr %1, align 1
  %.not6 = icmp eq i8 %5, 45
  br i1 %.not6, label %sub_1, label %.tail

sub_1:                                            ; preds = %sub_0
  %6 = getelementptr inbounds nuw i8, ptr %1, i64 1
  %7 = load i8, ptr %6, align 1
  %8 = icmp eq i8 %7, 0
  %9 = select i1 %8, ptr @.str.195, ptr %1
  br label %.tail

.tail:                                            ; preds = %sub_0, %sub_1
  %.not4 = phi ptr [ %1, %sub_0 ], [ %9, %sub_1 ]
  %10 = tail call noalias ptr @av_strdup(ptr noundef nonnull %.not4) #20
  store ptr %10, ptr @input_filename, align 8, !tbaa !13
  %.not5 = icmp eq ptr %10, null
  %. = select i1 %.not5, i32 -12, i32 0
  br label %11

11:                                               ; preds = %.tail, %4
  %.0 = phi i32 [ -22, %4 ], [ %., %.tail ]
  ret i32 %.0
}